target datalayout = "e-m:e-p270:32:32-p271:32:32-p272:64:64-i64:64-i128:128-f80:128-n8:16:32:64-S128"
target triple = "x86_64-pc-linux-gnu"

%struct.pending_spawn_req = type { i32, i32, i32, ptr, ptr }

@psr_list = internal global ptr null, align 8

; Function Attrs: nounwind uwtable
define dso_local i32 @spawn_psr_dequeue(i32 noundef %0, ptr noundef %1, ptr noundef %2, ptr noundef %3) #0 {
  %5 = alloca i32, align 4
  %6 = alloca i32, align 4
  %7 = alloca ptr, align 8
  %8 = alloca ptr, align 8
  %9 = alloca ptr, align 8
  %10 = alloca ptr, align 8
  %11 = alloca ptr, align 8
  %12 = alloca i32, align 4
  store i32 %0, ptr %6, align 4
  store ptr %1, ptr %7, align 8
  store ptr %2, ptr %8, align 8
  store ptr %3, ptr %9, align 8
  call void @llvm.lifetime.start.p0(i64 8, ptr %10) #7
  call void @llvm.lifetime.start.p0(i64 8, ptr %11) #7
  store ptr @psr_list, ptr %11, align 8
  %13 = load ptr, ptr %11, align 8
  %14 = load ptr, ptr %13, align 8
  store ptr %14, ptr %10, align 8
  br label %15

15:                                               ; preds = %24, %4
  %16 = load ptr, ptr %10, align 8
  %17 = icmp ne ptr %16, null
  br i1 %17, label %18, label %46

18:                                               ; preds = %15
  %19 = load ptr, ptr %10, align 8
  %20 = getelementptr inbounds nuw %struct.pending_spawn_req, ptr %19, i32 0, i32 0
  %21 = load i32, ptr %20, align 8
  %22 = load i32, ptr %6, align 4
  %23 = icmp ne i32 %21, %22
  br i1 %23, label %24, label %29

24:                                               ; preds = %18
  %25 = load ptr, ptr %10, align 8
  %26 = getelementptr inbounds nuw %struct.pending_spawn_req, ptr %25, i32 0, i32 4
  store ptr %26, ptr %11, align 8
  %27 = load ptr, ptr %11, align 8
  %28 = load ptr, ptr %27, align 8
  store ptr %28, ptr %10, align 8
  br label %15, !llvm.loop !26

29:                                               ; preds = %18
  %30 = load ptr, ptr %10, align 8
  %31 = getelementptr inbounds nuw %struct.pending_spawn_req, ptr %30, i32 0, i32 1
  %32 = load i32, ptr %31, align 4
  %33 = load ptr, ptr %7, align 8
  store i32 %32, ptr %33, align 4
  %34 = load ptr, ptr %10, align 8
  %35 = getelementptr inbounds nuw %struct.pending_spawn_req, ptr %34, i32 0, i32 2
  %36 = load i32, ptr %35, align 8
  %37 = load ptr, ptr %8, align 8
  store i32 %36, ptr %37, align 4
  %38 = load ptr, ptr %10, align 8
  %39 = getelementptr inbounds nuw %struct.pending_spawn_req, ptr %38, i32 0, i32 3
  %40 = load ptr, ptr %39, align 8
  %41 = load ptr, ptr %9, align 8
  store ptr %40, ptr %41, align 8
  %42 = load ptr, ptr %10, align 8
  %43 = getelementptr inbounds nuw %struct.pending_spawn_req, ptr %42, i32 0, i32 4
  %44 = load ptr, ptr %43, align 8
  %45 = load ptr, ptr %11, align 8
  store ptr %44, ptr %45, align 8
  call void @slurm_xfree(ptr noundef %10)
  store i32 0, ptr %5, align 4
  store i32 1, ptr %12, align 4
  br label %47

46:                                               ; preds = %15
  store i32 -1, ptr %5, align 4
  store i32 1, ptr %12, align 4
  br label %47

47:                                               ; preds = %46, %29
  call void @llvm.lifetime.end.p0(i64 8, ptr %11) #7
  call void @llvm.lifetime.end.p0(i64 8, ptr %10) #7
  %48 = load i32, ptr %5, align 4
  ret i32 %48
}