; Function Attrs: nounwind uwtable
define dso_local range(i32 -1, 1) i32 @spawn_psr_dequeue(i32 noundef %0, ptr noundef writeonly captures(none) %1, ptr noundef writeonly captures(none) %2, ptr noundef writeonly captures(none) %3) local_unnamed_addr #0 {
  %5 = alloca ptr, align 8
  call void @llvm.lifetime.start.p0(i64 8, ptr nonnull %5) #10
  %storemerge12 = load ptr, ptr @psr_list, align 8
  store ptr %storemerge12, ptr %5, align 8
  %.not13 = icmp eq ptr %storemerge12, null
  br i1 %.not13, label %.loopexit, label %.lr.ph.preheader

.lr.ph.preheader:                                 ; preds = %4
  %6 = load i32, ptr %storemerge12, align 8
  %.not922 = icmp eq i32 %6, %0
  br i1 %.not922, label %.lr.ph._crit_edge, label %.lr.ph24

.lr.ph:                                           ; preds = %.lr.ph24
  %7 = load i32, ptr %storemerge, align 8
  %.not9 = icmp eq i32 %7, %0
  br i1 %.not9, label %.lr.ph._crit_edge.loopexit, label %.lr.ph24, !llvm.loop !26

.lr.ph24:                                         ; preds = %.lr.ph.preheader, %.lr.ph
  %storemerge1523 = phi ptr [ %storemerge, %.lr.ph ], [ %storemerge12, %.lr.ph.preheader ]
  %8 = getelementptr inbounds nuw i8, ptr %storemerge1523, i64 24
  %storemerge = load ptr, ptr %8, align 8
  store ptr %storemerge, ptr %5, align 8
  %.not = icmp eq ptr %storemerge, null
  br i1 %.not, label %.loopexit, label %.lr.ph, !llvm.loop !26

.lr.ph._crit_edge.loopexit:                       ; preds = %.lr.ph
  %9 = getelementptr inbounds nuw i8, ptr %storemerge1523, i64 24
  br label %.lr.ph._crit_edge

.lr.ph._crit_edge:                                ; preds = %.lr.ph._crit_edge.loopexit, %.lr.ph.preheader
  %storemerge15.lcssa = phi ptr [ %storemerge12, %.lr.ph.preheader ], [ %storemerge, %.lr.ph._crit_edge.loopexit ]
  %.014.lcssa = phi ptr [ @psr_list, %.lr.ph.preheader ], [ %9, %.lr.ph._crit_edge.loopexit ]
  %10 = getelementptr inbounds nuw i8, ptr %storemerge15.lcssa, i64 4
  %11 = load i32, ptr %10, align 4
  store i32 %11, ptr %1, align 4
  %12 = getelementptr inbounds nuw i8, ptr %storemerge15.lcssa, i64 8
  %13 = load i32, ptr %12, align 8
  store i32 %13, ptr %2, align 4
  %14 = getelementptr inbounds nuw i8, ptr %storemerge15.lcssa, i64 16
  %15 = load ptr, ptr %14, align 8
  store ptr %15, ptr %3, align 8
  %16 = getelementptr inbounds nuw i8, ptr %storemerge15.lcssa, i64 24
  %17 = load ptr, ptr %16, align 8
  store ptr %17, ptr %.014.lcssa, align 8
  call void @slurm_xfree(ptr noundef nonnull %5) #10
  br label %.loopexit

.loopexit:                                        ; preds = %.lr.ph24, %4, %.lr.ph._crit_edge
  %.07 = phi i32 [ 0, %.lr.ph._crit_edge ], [ -1, %4 ], [ -1, %.lr.ph24 ]
  call void @llvm.lifetime.end.p0(i64 8, ptr nonnull %5) #10
  ret i32 %.07
}